target datalayout = "e-m:e-p270:32:32-p271:32:32-p272:64:64-i64:64-i128:128-f80:128-n8:16:32:64-S128"
target triple = "x86_64-pc-linux-gnu"

%struct.asn1_string_st = type { i32, i32, ptr, i64 }
%struct.dsa_st = type { i32, i32, %struct.ffc_params_st, ptr, ptr, i32, ptr, %struct.CRYPTO_REF_COUNT, %struct.crypto_ex_data_st, ptr, ptr, ptr, ptr, i64 }
%struct.ffc_params_st = type { ptr, ptr, ptr, ptr, ptr, i64, i32, i32, i32, i32, i32, ptr, ptr, i32 }
%struct.CRYPTO_REF_COUNT = type { i32 }
%struct.crypto_ex_data_st = type { ptr, ptr }

@.str.2 = private unnamed_addr constant [34 x i8] c"../openssl/crypto/dsa/dsa_ameth.c\00", align 1
@__func__.dsa_pub_decode = private unnamed_addr constant [15 x i8] c"dsa_pub_decode\00", align 1

; Function Attrs: nounwind uwtable
define internal i32 @dsa_pub_decode(ptr noundef %0, ptr noundef %1) #0 {
  %3 = alloca i32, align 4
  %4 = alloca ptr, align 8
  %5 = alloca ptr, align 8
  %6 = alloca ptr, align 8
  %7 = alloca ptr, align 8
  %8 = alloca i32, align 4
  %9 = alloca i32, align 4
  %10 = alloca i32, align 4
  %11 = alloca ptr, align 8
  %12 = alloca ptr, align 8
  %13 = alloca ptr, align 8
  %14 = alloca ptr, align 8
  %15 = alloca ptr, align 8
  %16 = alloca i32, align 4
  store ptr %0, ptr %4, align 8, !tbaa !3
  store ptr %1, ptr %5, align 8, !tbaa !8
  call void @llvm.lifetime.start.p0(i64 8, ptr %6) #3
  call void @llvm.lifetime.start.p0(i64 8, ptr %7) #3
  call void @llvm.lifetime.start.p0(i64 4, ptr %8) #3
  call void @llvm.lifetime.start.p0(i64 4, ptr %9) #3
  call void @llvm.lifetime.start.p0(i64 4, ptr %10) #3
  call void @llvm.lifetime.start.p0(i64 8, ptr %11) #3
  call void @llvm.lifetime.start.p0(i64 8, ptr %12) #3
  call void @llvm.lifetime.start.p0(i64 8, ptr %13) #3
  call void @llvm.lifetime.start.p0(i64 8, ptr %14) #3
  store ptr null, ptr %14, align 8, !tbaa !10
  call void @llvm.lifetime.start.p0(i64 8, ptr %15) #3
  store ptr null, ptr %15, align 8, !tbaa !12
  %17 = load ptr, ptr %5, align 8, !tbaa !8
  %18 = call i32 @X509_PUBKEY_get0_param(ptr noundef null, ptr noundef %6, ptr noundef %8, ptr noundef %13, ptr noundef %17)
  %19 = icmp ne i32 %18, 0
  br i1 %19, label %21, label %20

20:                                               ; preds = %2
  store i32 0, ptr %3, align 4
  store i32 1, ptr %16, align 4
  br label %77

21:                                               ; preds = %2
  %22 = load ptr, ptr %13, align 8, !tbaa !14
  call void @X509_ALGOR_get0(ptr noundef null, ptr noundef %10, ptr noundef %11, ptr noundef %22)
  %23 = load i32, ptr %10, align 4, !tbaa !16
  %24 = icmp eq i32 %23, 16
  br i1 %24, label %25, label %39

25:                                               ; preds = %21
  %26 = load ptr, ptr %11, align 8, !tbaa !18
  store ptr %26, ptr %12, align 8, !tbaa !10
  %27 = load ptr, ptr %12, align 8, !tbaa !10
  %28 = getelementptr inbounds nuw %struct.asn1_string_st, ptr %27, i32 0, i32 2
  %29 = load ptr, ptr %28, align 8, !tbaa !19
  store ptr %29, ptr %7, align 8, !tbaa !23
  %30 = load ptr, ptr %12, align 8, !tbaa !10
  %31 = getelementptr inbounds nuw %struct.asn1_string_st, ptr %30, i32 0, i32 0
  %32 = load i32, ptr %31, align 8, !tbaa !24
  store i32 %32, ptr %9, align 4, !tbaa !16
  %33 = load i32, ptr %9, align 4, !tbaa !16
  %34 = sext i32 %33 to i64
  %35 = call ptr @d2i_DSAparams(ptr noundef null, ptr noundef %7, i64 noundef %34)
  store ptr %35, ptr %15, align 8, !tbaa !12
  %36 = icmp eq ptr %35, null
  br i1 %36, label %37, label %38

37:                                               ; preds = %25
  call void @ERR_new()
  call void @ERR_set_debug(ptr noundef @.str.2, i32 noundef 51, ptr noundef @__func__.dsa_pub_decode)
  call void (i32, i32, ptr, ...) @ERR_set_error(i32 noundef 10, i32 noundef 104, ptr noundef null)
  br label %74

38:                                               ; preds = %25
  br label %52

39:                                               ; preds = %21
  %40 = load i32, ptr %10, align 4, !tbaa !16
  %41 = icmp eq i32 %40, 5
  br i1 %41, label %45, label %42

42:                                               ; preds = %39
  %43 = load i32, ptr %10, align 4, !tbaa !16
  %44 = icmp eq i32 %43, -1
  br i1 %44, label %45, label %50

45:                                               ; preds = %42, %39
  %46 = call ptr @DSA_new()
  store ptr %46, ptr %15, align 8, !tbaa !12
  %47 = icmp eq ptr %46, null
  br i1 %47, label %48, label %49

48:                                               ; preds = %45
  call void @ERR_new()
  call void @ERR_set_debug(ptr noundef @.str.2, i32 noundef 57, ptr noundef @__func__.dsa_pub_decode)
  call void (i32, i32, ptr, ...) @ERR_set_error(i32 noundef 10, i32 noundef 524298, ptr noundef null)
  br label %74

49:                                               ; preds = %45
  br label %51

50:                                               ; preds = %42
  call void @ERR_new()
  call void @ERR_set_debug(ptr noundef @.str.2, i32 noundef 61, ptr noundef @__func__.dsa_pub_decode)
  call void (i32, i32, ptr, ...) @ERR_set_error(i32 noundef 10, i32 noundef 105, ptr noundef null)
  br label %74

51:                                               ; preds = %49
  br label %52

52:                                               ; preds = %51, %38
  %53 = load i32, ptr %8, align 4, !tbaa !16
  %54 = sext i32 %53 to i64
  %55 = call ptr @d2i_ASN1_INTEGER(ptr noundef null, ptr noundef %6, i64 noundef %54)
  store ptr %55, ptr %14, align 8, !tbaa !10
  %56 = icmp eq ptr %55, null
  br i1 %56, label %57, label %58

57:                                               ; preds = %52
  call void @ERR_new()
  call void @ERR_set_debug(ptr noundef @.str.2, i32 noundef 66, ptr noundef @__func__.dsa_pub_decode)
  call void (i32, i32, ptr, ...) @ERR_set_error(i32 noundef 10, i32 noundef 104, ptr noundef null)
  br label %74

58:                                               ; preds = %52
  %59 = load ptr, ptr %14, align 8, !tbaa !10
  %60 = call ptr @ASN1_INTEGER_to_BN(ptr noundef %59, ptr noundef null)
  %61 = load ptr, ptr %15, align 8, !tbaa !12
  %62 = getelementptr inbounds nuw %struct.dsa_st, ptr %61, i32 0, i32 3
  store ptr %60, ptr %62, align 8, !tbaa !25
  %63 = icmp eq ptr %60, null
  br i1 %63, label %64, label %65

64:                                               ; preds = %58
  call void @ERR_new()
  call void @ERR_set_debug(ptr noundef @.str.2, i32 noundef 71, ptr noundef @__func__.dsa_pub_decode)
  call void (i32, i32, ptr, ...) @ERR_set_error(i32 noundef 10, i32 noundef 108, ptr noundef null)
  br label %74

65:                                               ; preds = %58
  %66 = load ptr, ptr %15, align 8, !tbaa !12
  %67 = getelementptr inbounds nuw %struct.dsa_st, ptr %66, i32 0, i32 13
  %68 = load i64, ptr %67, align 8, !tbaa !36
  %69 = add i64 %68, 1
  store i64 %69, ptr %67, align 8, !tbaa !36
  %70 = load ptr, ptr %14, align 8, !tbaa !10
  call void @ASN1_INTEGER_free(ptr noundef %70)
  %71 = load ptr, ptr %4, align 8, !tbaa !3
  %72 = load ptr, ptr %15, align 8, !tbaa !12
  %73 = call i32 @EVP_PKEY_assign(ptr noundef %71, i32 noundef 116, ptr noundef %72)
  store i32 1, ptr %3, align 4
  store i32 1, ptr %16, align 4
  br label %77

74:                                               ; preds = %64, %57, %50, %48, %37
  %75 = load ptr, ptr %14, align 8, !tbaa !10
  call void @ASN1_INTEGER_free(ptr noundef %75)
  %76 = load ptr, ptr %15, align 8, !tbaa !12
  call void @DSA_free(ptr noundef %76)
  store i32 0, ptr %3, align 4
  store i32 1, ptr %16, align 4
  br label %77

77:                                               ; preds = %74, %65, %20
  call void @llvm.lifetime.end.p0(i64 8, ptr %15) #3
  call void @llvm.lifetime.end.p0(i64 8, ptr %14) #3
  call void @llvm.lifetime.end.p0(i64 8, ptr %13) #3
  call void @llvm.lifetime.end.p0(i64 8, ptr %12) #3
  call void @llvm.lifetime.end.p0(i64 8, ptr %11) #3
  call void @llvm.lifetime.end.p0(i64 4, ptr %10) #3
  call void @llvm.lifetime.end.p0(i64 4, ptr %9) #3
  call void @llvm.lifetime.end.p0(i64 4, ptr %8) #3
  call void @llvm.lifetime.end.p0(i64 8, ptr %7) #3
  call void @llvm.lifetime.end.p0(i64 8, ptr %6) #3
  %78 = load i32, ptr %3, align 4
  ret i32 %78
}