; Function Attrs: nounwind uwtable
define internal range(i32 0, 2) i32 @dsa_pub_decode(ptr noundef %0, ptr noundef %1) #0 {
  %3 = alloca ptr, align 8
  %4 = alloca ptr, align 8
  %5 = alloca i32, align 4
  %6 = alloca i32, align 4
  %7 = alloca ptr, align 8
  %8 = alloca ptr, align 8
  call void @llvm.lifetime.start.p0(i64 8, ptr nonnull %3) #5
  call void @llvm.lifetime.start.p0(i64 8, ptr nonnull %4) #5
  call void @llvm.lifetime.start.p0(i64 4, ptr nonnull %5) #5
  call void @llvm.lifetime.start.p0(i64 4, ptr nonnull %6) #5
  call void @llvm.lifetime.start.p0(i64 8, ptr nonnull %7) #5
  call void @llvm.lifetime.start.p0(i64 8, ptr nonnull %8) #5
  %9 = call i32 @X509_PUBKEY_get0_param(ptr noundef null, ptr noundef nonnull %3, ptr noundef nonnull %5, ptr noundef nonnull %8, ptr noundef %1) #5
  %.not = icmp eq i32 %9, 0
  br i1 %.not, label %39, label %10

10:                                               ; preds = %2
  %11 = load ptr, ptr %8, align 8, !tbaa !3
  call void @X509_ALGOR_get0(ptr noundef null, ptr noundef nonnull %6, ptr noundef nonnull %7, ptr noundef %11) #5
  %12 = load i32, ptr %6, align 4, !tbaa !8
  switch i32 %12, label %38 [
    i32 16, label %13
    i32 -1, label %21
    i32 5, label %21
  ]

13:                                               ; preds = %10
  %14 = load ptr, ptr %7, align 8, !tbaa !10
  %15 = getelementptr inbounds nuw i8, ptr %14, i64 8
  %16 = load ptr, ptr %15, align 8, !tbaa !11
  store ptr %16, ptr %4, align 8, !tbaa !15
  %17 = load i32, ptr %14, align 8, !tbaa !16
  %18 = sext i32 %17 to i64
  %19 = call ptr @d2i_DSAparams(ptr noundef null, ptr noundef nonnull %4, i64 noundef %18) #5
  %20 = icmp eq ptr %19, null
  br i1 %20, label %38, label %24

21:                                               ; preds = %10, %10
  %22 = call ptr @DSA_new() #5
  %23 = icmp eq ptr %22, null
  br i1 %23, label %38, label %24

24:                                               ; preds = %21, %13
  %.1 = phi ptr [ %19, %13 ], [ %22, %21 ]
  %25 = load i32, ptr %5, align 4, !tbaa !8
  %26 = sext i32 %25 to i64
  %27 = call ptr @d2i_ASN1_INTEGER(ptr noundef null, ptr noundef nonnull %3, i64 noundef %26) #5
  %28 = icmp eq ptr %27, null
  br i1 %28, label %38, label %29

29:                                               ; preds = %24
  %30 = call ptr @ASN1_INTEGER_to_BN(ptr noundef nonnull %27, ptr noundef null) #5
  %31 = getelementptr inbounds nuw i8, ptr %.1, i64 104
  store ptr %30, ptr %31, align 8, !tbaa !17
  %32 = icmp eq ptr %30, null
  br i1 %32, label %38, label %33

33:                                               ; preds = %29
  %34 = getelementptr inbounds nuw i8, ptr %.1, i64 192
  %35 = load i64, ptr %34, align 8, !tbaa !28
  %36 = add i64 %35, 1
  store i64 %36, ptr %34, align 8, !tbaa !28
  call void @ASN1_INTEGER_free(ptr noundef nonnull %27) #5
  %37 = call i32 @EVP_PKEY_assign(ptr noundef %0, i32 noundef 116, ptr noundef nonnull %.1) #5
  br label %39

38:                                               ; preds = %29, %24, %10, %21, %13
  %.sink22 = phi i32 [ 51, %13 ], [ 57, %21 ], [ 61, %10 ], [ 66, %24 ], [ 71, %29 ]
  %.sink = phi i32 [ 104, %13 ], [ 524298, %21 ], [ 105, %10 ], [ 104, %24 ], [ 108, %29 ]
  %.013 = phi ptr [ null, %13 ], [ null, %21 ], [ null, %10 ], [ null, %24 ], [ %27, %29 ]
  %.0 = phi ptr [ null, %13 ], [ null, %21 ], [ null, %10 ], [ %.1, %24 ], [ %.1, %29 ]
  call void @ERR_new() #5
  call void @ERR_set_debug(ptr noundef nonnull @.str.2, i32 noundef %.sink22, ptr noundef nonnull @__func__.dsa_pub_decode) #5
  call void (i32, i32, ptr, ...) @ERR_set_error(i32 noundef 10, i32 noundef %.sink, ptr noundef null) #5
  call void @ASN1_INTEGER_free(ptr noundef %.013) #5
  call void @DSA_free(ptr noundef %.0) #5
  br label %39

39:                                               ; preds = %2, %38, %33
  %.014 = phi i32 [ 0, %38 ], [ 1, %33 ], [ 0, %2 ]
  call void @llvm.lifetime.end.p0(i64 8, ptr nonnull %8) #5
  call void @llvm.lifetime.end.p0(i64 8, ptr nonnull %7) #5
  call void @llvm.lifetime.end.p0(i64 4, ptr nonnull %6) #5
  call void @llvm.lifetime.end.p0(i64 4, ptr nonnull %5) #5
  call void @llvm.lifetime.end.p0(i64 8, ptr nonnull %4) #5
  call void @llvm.lifetime.end.p0(i64 8, ptr nonnull %3) #5
  ret i32 %.014
}